target datalayout = "e-m:e-p270:32:32-p271:32:32-p272:64:64-i64:64-i128:128-f80:128-n8:16:32:64-S128"
target triple = "x86_64-pc-linux-gnu"

%"class.cv::bioinspired::ImageLogPolProjection" = type <{ ptr, %"class.cv::bioinspired::BasicRetinaFilter", i32, i32, i32, i32, i32, i32, i8, [7 x i8], double, double, double, double, double, %"class.std::valarray", ptr, %"class.std::valarray.0", ptr, i32, i8, [3 x i8] }>
%"class.cv::bioinspired::BasicRetinaFilter" = type { %"class.cv::bioinspired::TemplateBuffer", %"class.std::valarray", i32, i32, %"class.std::valarray", %"class.std::valarray", %"class.std::valarray", float, float, float, float, float, float, float, float }
%"class.cv::bioinspired::TemplateBuffer" = type { ptr, %"class.std::valarray", i64, i64, i64, i64, i64 }
%"class.std::valarray" = type { i64, ptr }
%"class.std::valarray.0" = type { i64, ptr }

@_ZTVN2cv11bioinspired21ImageLogPolProjectionE = hidden unnamed_addr constant { [4 x ptr] } { [4 x ptr] [ptr null, ptr @_ZTIN2cv11bioinspired21ImageLogPolProjectionE, ptr @_ZN2cv11bioinspired21ImageLogPolProjectionD1Ev, ptr @_ZN2cv11bioinspired21ImageLogPolProjectionD0Ev] }, align 8

; Function Attrs: inlinehint mustprogress nounwind uwtable
define linkonce_odr void @_ZSt27__valarray_destroy_elementsIfEvPT_S1_(ptr noundef %0, ptr noundef %1) #6 comdat {
  %3 = alloca ptr, align 8
  %4 = alloca ptr, align 8
  store ptr %0, ptr %3, align 8, !tbaa !45
  store ptr %1, ptr %4, align 8, !tbaa !45
  ret void
}

; Function Attrs: noinline noreturn nounwind uwtable
define linkonce_odr hidden void @__clang_call_terminate(ptr noundef %0) #15 comdat {
  %2 = call ptr @__cxa_begin_catch(ptr %0) #3
  call void @_ZSt9terminatev() #16
  unreachable
}

; Function Attrs: inlinehint mustprogress nounwind uwtable
define linkonce_odr void @_ZSt25__valarray_release_memoryPv(ptr noundef %0) #6 comdat {
  %2 = alloca ptr, align 8
  store ptr %0, ptr %2, align 8, !tbaa !68
  %3 = load ptr, ptr %2, align 8, !tbaa !68
  call void @_ZdlPv(ptr noundef %3) #3
  ret void
}

; Function Attrs: inlinehint mustprogress nounwind uwtable
define linkonce_odr void @_ZSt27__valarray_destroy_elementsIjEvPT_S1_(ptr noundef %0, ptr noundef %1) #6 comdat {
  %3 = alloca ptr, align 8
  %4 = alloca ptr, align 8
  store ptr %0, ptr %3, align 8, !tbaa !80
  store ptr %1, ptr %4, align 8, !tbaa !80
  ret void
}

; Function Attrs: inlinehint mustprogress nounwind uwtable
define linkonce_odr hidden void @_ZNSt8valarrayIfED2Ev(ptr noundef nonnull align 8 dereferenceable(16) %0) unnamed_addr #6 comdat align 2 personality ptr @__gxx_personality_v0 {
  %2 = alloca ptr, align 8
  store ptr %0, ptr %2, align 8, !tbaa !16
  %3 = load ptr, ptr %2, align 8
  %4 = getelementptr inbounds nuw %"class.std::valarray", ptr %3, i32 0, i32 1
  %5 = load ptr, ptr %4, align 8, !tbaa !39
  %6 = getelementptr inbounds nuw %"class.std::valarray", ptr %3, i32 0, i32 1
  %7 = load ptr, ptr %6, align 8, !tbaa !39
  %8 = getelementptr inbounds nuw %"class.std::valarray", ptr %3, i32 0, i32 0
  %9 = load i64, ptr %8, align 8, !tbaa !38
  %10 = getelementptr inbounds nuw float, ptr %7, i64 %9
  invoke void @_ZSt27__valarray_destroy_elementsIfEvPT_S1_(ptr noundef %5, ptr noundef %10)
          to label %11 unwind label %15

11:                                               ; preds = %1
  %12 = getelementptr inbounds nuw %"class.std::valarray", ptr %3, i32 0, i32 1
  %13 = load ptr, ptr %12, align 8, !tbaa !39
  invoke void @_ZSt25__valarray_release_memoryPv(ptr noundef %13)
          to label %14 unwind label %15

14:                                               ; preds = %11
  ret void

15:                                               ; preds = %11, %1
  %16 = landingpad { ptr, i32 }
          catch ptr null
  %17 = extractvalue { ptr, i32 } %16, 0
  call void @__clang_call_terminate(ptr %17) #16
  unreachable
}

; Function Attrs: inlinehint mustprogress nounwind uwtable
define linkonce_odr hidden void @_ZNSt8valarrayIjED2Ev(ptr noundef nonnull align 8 dereferenceable(16) %0) unnamed_addr #6 comdat align 2 personality ptr @__gxx_personality_v0 {
  %2 = alloca ptr, align 8
  store ptr %0, ptr %2, align 8, !tbaa !40
  %3 = load ptr, ptr %2, align 8
  %4 = getelementptr inbounds nuw %"class.std::valarray.0", ptr %3, i32 0, i32 1
  %5 = load ptr, ptr %4, align 8, !tbaa !43
  %6 = getelementptr inbounds nuw %"class.std::valarray.0", ptr %3, i32 0, i32 1
  %7 = load ptr, ptr %6, align 8, !tbaa !43
  %8 = getelementptr inbounds nuw %"class.std::valarray.0", ptr %3, i32 0, i32 0
  %9 = load i64, ptr %8, align 8, !tbaa !42
  %10 = getelementptr inbounds nuw i32, ptr %7, i64 %9
  invoke void @_ZSt27__valarray_destroy_elementsIjEvPT_S1_(ptr noundef %5, ptr noundef %10)
          to label %11 unwind label %14

11:                                               ; preds = %1
  %12 = getelementptr inbounds nuw %"class.std::valarray.0", ptr %3, i32 0, i32 1
  %13 = load ptr, ptr %12, align 8, !tbaa !43
  call void @_ZSt25__valarray_release_memoryPv(ptr noundef %13)
  ret void

14:                                               ; preds = %1
  %15 = landingpad { ptr, i32 }
          catch ptr null
  %16 = extractvalue { ptr, i32 } %15, 0
  call void @__clang_call_terminate(ptr %16) #16
  unreachable
}

; Function Attrs: mustprogress nounwind uwtable
define hidden void @_ZN2cv11bioinspired21ImageLogPolProjectionD2Ev(ptr noundef nonnull align 8 dereferenceable(301) %0) unnamed_addr #7 align 2 {
  %2 = alloca ptr, align 8
  store ptr %0, ptr %2, align 8, !tbaa !3
  %3 = load ptr, ptr %2, align 8
  store ptr getelementptr inbounds inrange(-16, 16) ({ [4 x ptr] }, ptr @_ZTVN2cv11bioinspired21ImageLogPolProjectionE, i32 0, i32 0, i32 2), ptr %3, align 8, !tbaa !14
  %4 = getelementptr inbounds nuw %"class.cv::bioinspired::ImageLogPolProjection", ptr %3, i32 0, i32 17
  call void @_ZNSt8valarrayIjED2Ev(ptr noundef nonnull align 8 dereferenceable(16) %4) #3
  %5 = getelementptr inbounds nuw %"class.cv::bioinspired::ImageLogPolProjection", ptr %3, i32 0, i32 15
  call void @_ZNSt8valarrayIfED2Ev(ptr noundef nonnull align 8 dereferenceable(16) %5) #3
  %6 = getelementptr inbounds i8, ptr %3, i64 8
  call void @_ZN2cv11bioinspired17BasicRetinaFilterD2Ev(ptr noundef nonnull align 8 dereferenceable(168) %6) #3
  ret void
}