; Function Attrs: mustprogress nounwind uwtable
define hidden void @_ZN2cv11bioinspired21ImageLogPolProjectionD2Ev(ptr noundef nonnull align 8 dereferenceable(301) initializes((0, 8)) %0) unnamed_addr #5 align 2 personality ptr @__gxx_personality_v0 {
  store ptr getelementptr inbounds nuw inrange(-16, 16) (i8, ptr @_ZTVN2cv11bioinspired21ImageLogPolProjectionE, i64 16), ptr %0, align 8, !tbaa !3
  %2 = getelementptr inbounds nuw i8, ptr %0, i64 280
  %3 = load ptr, ptr %2, align 8, !tbaa !18
  tail call void @_ZdlPv(ptr noundef %3) #16
  %4 = getelementptr inbounds nuw i8, ptr %0, i64 256
  %5 = load ptr, ptr %4, align 8, !tbaa !12
  tail call void @_ZdlPv(ptr noundef %5) #16
  %6 = getelementptr inbounds nuw i8, ptr %0, i64 8
  tail call void @_ZN2cv11bioinspired17BasicRetinaFilterD2Ev(ptr noundef nonnull align 8 dereferenceable(168) %6) #16
  ret void
}